target datalayout = "e-m:e-p270:32:32-p271:32:32-p272:64:64-i64:64-i128:128-f80:128-n8:16:32:64-S128"
target triple = "x86_64-pc-linux-gnu"

; Function Attrs: nounwind uwtable
define internal void @ac3_sum_square_butterfly_int32_c(ptr noundef %0, ptr noundef %1, ptr noundef %2, i32 noundef %3) #0 {
  %5 = alloca ptr, align 8
  %6 = alloca ptr, align 8
  %7 = alloca ptr, align 8
  %8 = alloca i32, align 4
  %9 = alloca i32, align 4
  %10 = alloca i32, align 4
  %11 = alloca i32, align 4
  %12 = alloca i32, align 4
  %13 = alloca i32, align 4
  store ptr %0, ptr %5, align 8, !tbaa !68
  store ptr %1, ptr %6, align 8, !tbaa !24
  store ptr %2, ptr %7, align 8, !tbaa !24
  store i32 %3, ptr %8, align 4, !tbaa !14
  call void @llvm.lifetime.start.p0(i64 4, ptr %9) #6
  %14 = load ptr, ptr %5, align 8, !tbaa !68
  %15 = getelementptr inbounds i64, ptr %14, i64 3
  store i64 0, ptr %15, align 8, !tbaa !26
  %16 = load ptr, ptr %5, align 8, !tbaa !68
  %17 = getelementptr inbounds i64, ptr %16, i64 2
  store i64 0, ptr %17, align 8, !tbaa !26
  %18 = load ptr, ptr %5, align 8, !tbaa !68
  %19 = getelementptr inbounds i64, ptr %18, i64 1
  store i64 0, ptr %19, align 8, !tbaa !26
  %20 = load ptr, ptr %5, align 8, !tbaa !68
  %21 = getelementptr inbounds i64, ptr %20, i64 0
  store i64 0, ptr %21, align 8, !tbaa !26
  store i32 0, ptr %9, align 4, !tbaa !14
  br label %22

22:                                               ; preds = %79, %4
  %23 = load i32, ptr %9, align 4, !tbaa !14
  %24 = load i32, ptr %8, align 4, !tbaa !14
  %25 = icmp slt i32 %23, %24
  br i1 %25, label %26, label %82

26:                                               ; preds = %22
  call void @llvm.lifetime.start.p0(i64 4, ptr %10) #6
  %27 = load ptr, ptr %6, align 8, !tbaa !24
  %28 = load i32, ptr %9, align 4, !tbaa !14
  %29 = sext i32 %28 to i64
  %30 = getelementptr inbounds i32, ptr %27, i64 %29
  %31 = load i32, ptr %30, align 4, !tbaa !14
  store i32 %31, ptr %10, align 4, !tbaa !14
  call void @llvm.lifetime.start.p0(i64 4, ptr %11) #6
  %32 = load ptr, ptr %7, align 8, !tbaa !24
  %33 = load i32, ptr %9, align 4, !tbaa !14
  %34 = sext i32 %33 to i64
  %35 = getelementptr inbounds i32, ptr %32, i64 %34
  %36 = load i32, ptr %35, align 4, !tbaa !14
  store i32 %36, ptr %11, align 4, !tbaa !14
  call void @llvm.lifetime.start.p0(i64 4, ptr %12) #6
  %37 = load i32, ptr %10, align 4, !tbaa !14
  %38 = load i32, ptr %11, align 4, !tbaa !14
  %39 = add nsw i32 %37, %38
  store i32 %39, ptr %12, align 4, !tbaa !14
  call void @llvm.lifetime.start.p0(i64 4, ptr %13) #6
  %40 = load i32, ptr %10, align 4, !tbaa !14
  %41 = load i32, ptr %11, align 4, !tbaa !14
  %42 = sub nsw i32 %40, %41
  store i32 %42, ptr %13, align 4, !tbaa !14
  %43 = load i32, ptr %10, align 4, !tbaa !14
  %44 = sext i32 %43 to i64
  %45 = load i32, ptr %10, align 4, !tbaa !14
  %46 = sext i32 %45 to i64
  %47 = mul nsw i64 %44, %46
  %48 = load ptr, ptr %5, align 8, !tbaa !68
  %49 = getelementptr inbounds i64, ptr %48, i64 0
  %50 = load i64, ptr %49, align 8, !tbaa !26
  %51 = add nsw i64 %50, %47
  store i64 %51, ptr %49, align 8, !tbaa !26
  %52 = load i32, ptr %11, align 4, !tbaa !14
  %53 = sext i32 %52 to i64
  %54 = load i32, ptr %11, align 4, !tbaa !14
  %55 = sext i32 %54 to i64
  %56 = mul nsw i64 %53, %55
  %57 = load ptr, ptr %5, align 8, !tbaa !68
  %58 = getelementptr inbounds i64, ptr %57, i64 1
  %59 = load i64, ptr %58, align 8, !tbaa !26
  %60 = add nsw i64 %59, %56
  store i64 %60, ptr %58, align 8, !tbaa !26
  %61 = load i32, ptr %12, align 4, !tbaa !14
  %62 = sext i32 %61 to i64
  %63 = load i32, ptr %12, align 4, !tbaa !14
  %64 = sext i32 %63 to i64
  %65 = mul nsw i64 %62, %64
  %66 = load ptr, ptr %5, align 8, !tbaa !68
  %67 = getelementptr inbounds i64, ptr %66, i64 2
  %68 = load i64, ptr %67, align 8, !tbaa !26
  %69 = add nsw i64 %68, %65
  store i64 %69, ptr %67, align 8, !tbaa !26
  %70 = load i32, ptr %13, align 4, !tbaa !14
  %71 = sext i32 %70 to i64
  %72 = load i32, ptr %13, align 4, !tbaa !14
  %73 = sext i32 %72 to i64
  %74 = mul nsw i64 %71, %73
  %75 = load ptr, ptr %5, align 8, !tbaa !68
  %76 = getelementptr inbounds i64, ptr %75, i64 3
  %77 = load i64, ptr %76, align 8, !tbaa !26
  %78 = add nsw i64 %77, %74
  store i64 %78, ptr %76, align 8, !tbaa !26
  call void @llvm.lifetime.end.p0(i64 4, ptr %13) #6
  call void @llvm.lifetime.end.p0(i64 4, ptr %12) #6
  call void @llvm.lifetime.end.p0(i64 4, ptr %11) #6
  call void @llvm.lifetime.end.p0(i64 4, ptr %10) #6
  br label %79

79:                                               ; preds = %26
  %80 = load i32, ptr %9, align 4, !tbaa !14
  %81 = add nsw i32 %80, 1
  store i32 %81, ptr %9, align 4, !tbaa !14
  br label %22, !llvm.loop !70

82:                                               ; preds = %22
  call void @llvm.lifetime.end.p0(i64 4, ptr %9) #6
  ret void
}