; Function Attrs: nofree norecurse nosync nounwind memory(argmem: readwrite) uwtable
define internal void @ac3_sum_square_butterfly_int32_c(ptr noundef writeonly captures(none) initializes((0, 32)) %0, ptr noundef readonly captures(none) %1, ptr noundef readonly captures(none) %2, i32 noundef %3) #3 {
  %5 = getelementptr inbounds nuw i8, ptr %0, i64 24
  %6 = getelementptr inbounds nuw i8, ptr %0, i64 16
  %7 = getelementptr inbounds nuw i8, ptr %0, i64 8
  %8 = icmp sgt i32 %3, 0
  tail call void @llvm.memset.p0.i64(ptr noundef nonnull align 8 dereferenceable(32) %0, i8 0, i64 32, i1 false)
  br i1 %8, label %.lr.ph, label %32

.lr.ph:                                           ; preds = %4
  %wide.trip.count = zext nneg i32 %3 to i64
  br label %9

9:                                                ; preds = %.lr.ph, %9
  %indvars.iv = phi i64 [ 0, %.lr.ph ], [ %indvars.iv.next, %9 ]
  %10 = phi i64 [ 0, %.lr.ph ], [ %31, %9 ]
  %11 = phi i64 [ 0, %.lr.ph ], [ %28, %9 ]
  %12 = phi i64 [ 0, %.lr.ph ], [ %25, %9 ]
  %13 = phi i64 [ 0, %.lr.ph ], [ %22, %9 ]
  %14 = getelementptr inbounds nuw i32, ptr %1, i64 %indvars.iv
  %15 = load i32, ptr %14, align 4, !tbaa !18
  %16 = getelementptr inbounds nuw i32, ptr %2, i64 %indvars.iv
  %17 = load i32, ptr %16, align 4, !tbaa !18
  %18 = add nsw i32 %17, %15
  %19 = sub nsw i32 %15, %17
  %20 = sext i32 %15 to i64
  %21 = mul nsw i64 %20, %20
  %22 = add nuw nsw i64 %13, %21
  %23 = sext i32 %17 to i64
  %24 = mul nsw i64 %23, %23
  %25 = add nuw nsw i64 %12, %24
  %26 = sext i32 %18 to i64
  %27 = mul nsw i64 %26, %26
  %28 = add nuw nsw i64 %11, %27
  %29 = sext i32 %19 to i64
  %30 = mul nsw i64 %29, %29
  %31 = add nuw nsw i64 %10, %30
  %indvars.iv.next = add nuw nsw i64 %indvars.iv, 1
  %exitcond.not = icmp eq i64 %indvars.iv.next, %wide.trip.count
  br i1 %exitcond.not, label %._crit_edge, label %9, !llvm.loop !55

._crit_edge:                                      ; preds = %9
  store i64 %22, ptr %0, align 8, !tbaa !56
  store i64 %25, ptr %7, align 8, !tbaa !56
  store i64 %28, ptr %6, align 8, !tbaa !56
  store i64 %31, ptr %5, align 8, !tbaa !56
  br label %32

32:                                               ; preds = %._crit_edge, %4
  ret void
}